Certificate:
    Data:
        Version: 3 (0x2)
        Serial Number: 2 (0x2)
        Signature Algorithm: sha256WithRSAEncryption
        Issuer: C=EC, ST=Guayas, L=Guayaquil, O=Test.Org, OU=Testing, CN=Test.Org/emailAddress=test@test.org
        Validity
            Not Before: Aug  8 03:24:42 2023 GMT
            Not After : Aug  5 03:24:42 2033 GMT
        Subject: C=EC, ST=Guayas, O=Test.Org, OU=Testing, CN=restclient/emailAddress=admin@restclient.com
        Subject Public Key Info:
            Public Key Algorithm: rsaEncryption
                Public-Key: (2048 bit)
                Modulus:
                    00:ad:17:48:ad:53:1e:59:45:07:9b:5c:eb:f3:80:
                    a7:88:2a:f2:d4:97:0c:51:17:38:d3:51:66:01:53:
                    e2:9c:47:57:e1:fd:f4:5f:04:c8:4e:15:64:a0:9f:
                    f7:25:d3:a4:87:bb:56:a4:00:3c:e9:52:c3:a8:99:
                    1f:e3:76:e3:80:4a:b4:e5:2f:47:22:1b:ba:eb:d8:
                    a3:aa:ea:6d:25:89:53:b2:23:7c:21:95:c0:cf:e8:
                    54:67:8e:d9:4c:4f:75:d7:c3:b9:b3:ea:aa:3c:35:
                    9f:30:8b:66:73:91:4e:f7:83:57:d9:dd:8d:c4:8c:
                    6e:67:b5:e5:1a:cf:37:ab:15:8d:89:45:31:7d:ee:
                    75:1c:a8:f1:c9:99:05:1b:53:b8:2d:c0:37:ff:65:
                    61:90:a7:d6:e2:ef:02:80:52:eb:0a:8c:e2:94:a2:
                    61:ac:2c:bf:c9:d3:be:09:d3:b5:a8:fc:72:f1:db:
                    ab:3a:e1:db:84:5f:50:e7:c2:51:04:c5:6f:95:35:
                    90:5b:23:76:c4:2f:d6:ab:43:d3:18:fd:83:fe:66:
                    3e:67:43:8c:60:10:3c:9c:5f:be:78:80:02:c7:16:
                    dc:49:b4:45:d1:c7:6c:70:55:ff:fe:fe:ee:61:83:
                    a1:3f:d6:7a:13:7e:89:bd:c1:6b:4c:e2:c5:af:d4:
                    89:9d
                Exponent: 65537 (0x10001)
        X509v3 extensions:
            X509v3 Basic Constraints: 
                CA:FALSE
            Netscape Comment: 
                OpenSSL Generated Certificate
            X509v3 Subject Key Identifier: 
                C7:4B:6B:61:B9:BC:85:4D:98:97:A7:3D:E0:1C:63:46:CE:F3:CE:86
            X509v3 Authority Key Identifier: 
                26:22:CE:44:73:FC:DA:93:EE:AB:1A:34:D2:47:E7:19:29:39:B6:94
    Signature Algorithm: sha256WithRSAEncryption
    Signature Value:
        17:af:49:19:2d:2c:53:a6:b1:70:87:a6:d3:36:77:62:c5:74:
        42:94:e0:7b:55:a6:1c:49:bd:f7:c9:94:39:10:a4:44:53:a2:
        b6:c2:61:98:73:53:f8:09:87:5e:4b:f9:31:e6:96:c9:c3:d5:
        0f:28:c5:a7:8d:3a:1e:b0:83:ff:75:0e:e9:dc:5c:05:fc:5a:
        15:65:22:79:3f:a8:25:41:75:1a:6b:69:18:8c:c2:f8:cd:b0:
        21:c5:29:e9:f5:72:59:89:c9:80:57:2c:9a:bb:16:fe:49:67:
        15:5d:e5:75:0e:1e:4e:18:70:15:cc:21:66:e8:f2:91:83:2a:
        73:1d:d4:8b:c3:99:56:4b:d8:b8:32:94:9d:f9:1d:45:07:e1:
        35:99:be:71:f0:90:9b:54:69:1f:cf:1e:3d:72:79:a5:8c:29:
        da:67:fb:20:a7:2b:71:b3:a6:79:c3:26:49:76:a9:9a:6b:29:
        c9:93:97:f4:cf:b2:c3:57:8d:df:70:6c:13:a1:32:b0:98:99:
        ca:ac:81:51:bd:4b:34:ba:4d:0b:8e:26:52:cb:d5:7d:2c:32:
        b0:c1:74:b3:35:fb:c6:24:a9:e1:2f:d3:a6:72:05:37:94:dc:
        05:35:fd:f6:e8:bd:8e:6e:3e:fd:54:38:87:81:ea:93:00:07:
        54:6c:5f:d8
-----BEGIN CERTIFICATE-----
MIID/DCCAuSgAwIBAgIBAjANBgkqhkiG9w0BAQsFADCBiDELMAkGA1UEBhMCRUMx
DzANBgNVBAgMBkd1YXlhczESMBAGA1UEBwwJR3VheWFxdWlsMREwDwYDVQQKDAhU
ZXN0Lk9yZzEQMA4GA1UECwwHVGVzdGluZzERMA8GA1UEAwwIVGVzdC5PcmcxHDAa
BgkqhkiG9w0BCQEWDXRlc3RAdGVzdC5vcmcwHhcNMjMwODA4MDMyNDQyWhcNMzMw
ODA1MDMyNDQyWjB9MQswCQYDVQQGEwJFQzEPMA0GA1UECAwGR3VheWFzMREwDwYD
VQQKDAhUZXN0Lk9yZzEQMA4GA1UECwwHVGVzdGluZzETMBEGA1UEAwwKcmVzdGNs
aWVudDEjMCEGCSqGSIb3DQEJARYUYWRtaW5AcmVzdGNsaWVudC5jb20wggEiMA0G
CSqGSIb3DQEBAQUAA4IBDwAwggEKAoIBAQCtF0itUx5ZRQebXOvzgKeIKvLUlwxR
FzjTUWYBU+KcR1fh/fRfBMhOFWSgn/cl06SHu1akADzpUsOomR/jduOASrTlL0ci
G7rr2KOq6m0liVOyI3whlcDP6FRnjtlMT3XXw7mz6qo8NZ8wi2ZzkU73g1fZ3Y3E
jG5nteUazzerFY2JRTF97nUcqPHJmQUbU7gtwDf/ZWGQp9bi7wKAUusKjOKUomGs
LL/J074J07Wo/HLx26s64duEX1DnwlEExW+VNZBbI3bEL9arQ9MY/YP+Zj5nQ4xg
EDycX754gALHFtxJtEXRx2xwVf/+/u5hg6E/1noTfom9wWtM4sWv1ImdAgMBAAGj
ezB5MAkGA1UdEwQCMAAwLAYJYIZIAYb4QgENBB8WHU9wZW5TU0wgR2VuZXJhdGVk
IENlcnRpZmljYXRlMB0GA1UdDgQWBBTHS2thubyFTZiXpz3gHGNGzvPOhjAfBgNV
HSMEGDAWgBQmIs5Ec/zak+6rGjTSR+cZKTm2lDANBgkqhkiG9w0BAQsFAAOCAQEA
F69JGS0sU6axcIem0zZ3YsV0QpTge1WmHEm998mUORCkRFOitsJhmHNT+AmHXkv5
MeaWycPVDyjFp406HrCD/3UO6dxcBfxaFWUieT+oJUF1GmtpGIzC+M2wIcUp6fVy
WYnJgFcsmrsW/klnFV3ldQ4eThhwFcwhZujykYMqcx3Ui8OZVkvYuDKUnfkdRQfh
NZm+cfCQm1RpH88ePXJ5pYwp2mf7IKcrcbOmecMmSXapmmspyZOX9M+yw1eN33Bs
E6EysJiZyqyBUb1LNLpNC44mUsvVfSwysMF0szX7xiSp4S/TpnIFN5TcBTX99ui9
jm4+/VQ4h4HqkwAHVGxf2A==
-----END CERTIFICATE-----
-----BEGIN CERTIFICATE-----
MIID8DCCAtigAwIBAgIUa5xDIIDXO1WqjZAht4OwgzuHbs0wDQYJKoZIhvcNAQEL
BQAwgYgxCzAJBgNVBAYTAkVDMQ8wDQYDVQQIDAZHdWF5YXMxEjAQBgNVBAcMCUd1
YXlhcXVpbDERMA8GA1UECgwIVGVzdC5PcmcxEDAOBgNVBAsMB1Rlc3RpbmcxETAP
BgNVBAMMCFRlc3QuT3JnMRwwGgYJKoZIhvcNAQkBFg10ZXN0QHRlc3Qub3JnMB4X
DTIzMDgwODAzMTY1NFoXDTMzMDgwNTAzMTY1NFowgYgxCzAJBgNVBAYTAkVDMQ8w
DQYDVQQIDAZHdWF5YXMxEjAQBgNVBAcMCUd1YXlhcXVpbDERMA8GA1UECgwIVGVz
dC5PcmcxEDAOBgNVBAsMB1Rlc3RpbmcxETAPBgNVBAMMCFRlc3QuT3JnMRwwGgYJ
KoZIhvcNAQkBFg10ZXN0QHRlc3Qub3JnMIIBIjANBgkqhkiG9w0BAQEFAAOCAQ8A
MIIBCgKCAQEA2MGHamDZKntVZLtlUcqP7bzV/Rpk28bLdCt5ttHfmDU/3nUQqVs/
Mzk+6pIH73W9im1Fy87SJ3Z5V4hdL9xLT+fcRRHNSMKrRM8UHAZ5xQKYBgGKVms7
+DFUBtsrztohnKHdiV3hGAgjuidXxpXRjT1HUZ8eu6LaT2H93Hmj1tFDiwCgA0LZ
G2B+9V3rWkUqjL5FGqPqRdb6kPr/KR2dEYMfpQT5PIMNe5gIhMTHVBt4Cd1lV+Ds
MBI6O12PXDuL83xAYwXpsWzSNtwwHLXANGAuQw0JwK47EgZf2hhZs8WDfbf5TBhU
RmudOvIy6MyV8t4VJTOTwfpt6n8ld25QmQIDAQABo1AwTjAdBgNVHQ4EFgQUJiLO
RHP82pPuqxo00kfnGSk5tpQwHwYDVR0jBBgwFoAUJiLORHP82pPuqxo00kfnGSk5
tpQwDAYDVR0TBAUwAwEB/zANBgkqhkiG9w0BAQsFAAOCAQEAjZaSTuKLdYFgwPVf
hbnVp6NPApKM3ydLBW7PQohIOZ/u8b/cVhYqXZjDpJ+TLvTG96k8ihQctXtSr81G
D75xQ+mo+eCcizx8QUSHEYc9MWhNvYG0nF2cSyz2gZOlzzxWyBHG3CpLtkermfqb
XtAOBprLItGIoX0GaipsJvy00qU4HPiN8N5kustpyJvtU0AY9qX9bqv2J6LSOjOi
BWxV2kOVUvl6QDn/rVP7FrP2Q4R3OMGzbrg2eNgykb+QUzQ6Wz9aEDJRrqnOJrNG
LAtiGQu3aFhHqQb4WBlB6yYSBzVYjNVzHhnN6JvN3ONJ2HR32fsGQleVLtsbg33Z
hwdtsA==
-----END CERTIFICATE-----
