Certificate:
    Data:
        Version: 3 (0x2)
        Serial Number: 5 (0x5)
    Signature Algorithm: sha256WithRSAEncryption
        Issuer: C=EC, ST=Guayas, L=Guayaquil, O=Test.Org, OU=Testing, CN=Test.Org CA Root
        Validity
            Not Before: Aug 14 16:17:38 2022 GMT
            Not After : Aug 11 16:17:38 2032 GMT
        Subject: C=EC, ST=Guayas, O=Test.Org, OU=Testing, CN=*.restapi.com/emailAddress=admin@restapi.com
        Subject Public Key Info:
            Public Key Algorithm: rsaEncryption
                Public-Key: (2048 bit)
                Modulus:
                    00:d8:4b:aa:b6:b8:49:87:4b:60:74:72:89:bc:98:
                    c6:ce:5b:97:a3:80:06:3c:94:45:7c:a7:9e:9c:6b:
                    41:1d:84:4b:88:73:77:c6:68:03:55:17:a1:12:e3:
                    5b:15:29:bc:95:42:f6:a7:13:14:36:38:b9:4a:70:
                    3e:53:d8:35:e7:18:c7:54:70:2e:9c:65:64:5f:28:
                    f2:3f:78:ec:fe:16:77:d0:a7:ff:59:61:ee:0c:90:
                    82:94:ba:1c:6d:40:3e:5a:6c:6a:07:8f:77:b8:51:
                    71:80:36:cb:55:04:42:aa:b6:41:9e:8c:3f:78:e4:
                    d3:8b:7e:63:7e:18:26:59:28:a9:aa:73:05:3a:7a:
                    02:e4:05:3d:5e:09:8c:1b:52:b2:e7:f5:5f:76:a7:
                    68:ce:3b:f6:9f:b0:e3:e4:f0:61:9e:1c:7a:3d:8a:
                    b6:26:e5:e7:bf:d0:4f:78:8c:a9:de:8a:9b:5b:2b:
                    c1:c7:b6:23:91:f2:e9:c7:46:bd:ca:55:ec:9c:da:
                    59:a8:d3:f6:4f:63:0e:a7:90:14:cb:35:64:85:0d:
                    9c:a4:76:68:97:f9:84:a3:ff:80:c3:1d:1a:41:45:
                    aa:aa:0c:82:f6:08:b2:ed:c7:4e:d6:e4:29:40:48:
                    ad:db:b4:9b:11:91:4f:11:12:ab:39:0e:c3:f6:f6:
                    08:1d
                Exponent: 65537 (0x10001)
        X509v3 extensions:
            X509v3 Basic Constraints: 
                CA:FALSE
            Netscape Comment: 
                OpenSSL Generated Certificate
            X509v3 Subject Key Identifier: 
                87:BF:20:9E:68:D6:8C:8A:3B:D9:1A:C7:CC:E8:FE:B0:CA:62:EC:F0
            X509v3 Authority Key Identifier: 
                keyid:F4:FF:85:B1:17:87:32:57:A4:10:56:3A:34:DB:81:8F:F9:2D:7C:8C

            X509v3 Subject Alternative Name: 
                DNS:*.restapi.com, DNS:restapi.com, DNS:restapi, DNS:localhost
    Signature Algorithm: sha256WithRSAEncryption
         16:89:8c:4b:37:11:17:2f:3e:77:9e:3e:1b:d6:cd:5f:de:71:
         61:17:d2:a4:a1:23:e1:a7:4d:35:e2:72:ed:be:e7:3c:c1:b6:
         32:1f:e4:cc:f7:fa:a2:e3:3d:a2:7e:bb:f4:55:7c:67:c0:e4:
         f2:06:12:9b:1a:47:81:f3:fc:cf:71:75:83:7e:b8:ce:f0:9f:
         70:02:f0:80:a7:48:c8:91:9f:43:20:e4:8a:8c:e3:ac:a0:cf:
         a2:a4:c6:4e:1a:77:37:39:42:32:6b:4f:e7:7c:27:09:92:5f:
         e2:a3:e0:f9:a6:03:c0:a8:0a:30:2d:ab:b8:5b:9e:70:c2:4e:
         6f:17:21:45:10:43:e3:73:63:03:95:44:bb:0c:df:fe:49:e4:
         da:76:d6:97:e5:3b:09:59:f6:dc:37:1e:82:9e:67:6e:ce:d6:
         48:be:d2:06:14:f0:ea:ac:d8:4d:e7:a3:37:c5:18:d0:2a:3c:
         68:cc:e0:93:db:3c:36:6a:36:67:66:89:5c:26:3a:df:11:56:
         15:94:9a:0f:b7:dc:a3:bd:0b:cf:9d:e5:b2:7f:70:9f:66:95:
         f2:c0:bb:cc:10:07:bd:1c:4d:a1:2d:b2:b8:70:3e:98:e7:1c:
         04:86:3c:79:72:70:e4:80:be:ab:41:3b:79:ec:02:65:3a:76:
         4f:e6:5e:e2
-----BEGIN CERTIFICATE-----
MIIEIjCCAwqgAwIBAgIBBTANBgkqhkiG9w0BAQsFADByMQswCQYDVQQGEwJFQzEP
MA0GA1UECAwGR3VheWFzMRIwEAYDVQQHDAlHdWF5YXF1aWwxETAPBgNVBAoMCFRl
c3QuT3JnMRAwDgYDVQQLDAdUZXN0aW5nMRkwFwYDVQQDDBBUZXN0Lk9yZyBDQSBS
b290MB4XDTIyMDgxNDE2MTczOFoXDTMyMDgxMTE2MTczOFowfTELMAkGA1UEBhMC
RUMxDzANBgNVBAgMBkd1YXlhczERMA8GA1UECgwIVGVzdC5PcmcxEDAOBgNVBAsM
B1Rlc3RpbmcxFjAUBgNVBAMMDSoucmVzdGFwaS5jb20xIDAeBgkqhkiG9w0BCQEW
EWFkbWluQHJlc3RhcGkuY29tMIIBIjANBgkqhkiG9w0BAQEFAAOCAQ8AMIIBCgKC
AQEA2EuqtrhJh0tgdHKJvJjGzluXo4AGPJRFfKeenGtBHYRLiHN3xmgDVRehEuNb
FSm8lUL2pxMUNji5SnA+U9g15xjHVHAunGVkXyjyP3js/hZ30Kf/WWHuDJCClLoc
bUA+WmxqB493uFFxgDbLVQRCqrZBnow/eOTTi35jfhgmWSipqnMFOnoC5AU9XgmM
G1Ky5/Vfdqdozjv2n7Dj5PBhnhx6PYq2JuXnv9BPeIyp3oqbWyvBx7YjkfLpx0a9
ylXsnNpZqNP2T2MOp5AUyzVkhQ2cpHZol/mEo/+Awx0aQUWqqgyC9giy7cdO1uQp
QEit27SbEZFPERKrOQ7D9vYIHQIDAQABo4G3MIG0MAkGA1UdEwQCMAAwLAYJYIZI
AYb4QgENBB8WHU9wZW5TU0wgR2VuZXJhdGVkIENlcnRpZmljYXRlMB0GA1UdDgQW
BBSHvyCeaNaMijvZGsfM6P6wymLs8DAfBgNVHSMEGDAWgBT0/4WxF4cyV6QQVjo0
24GP+S18jDA5BgNVHREEMjAwgg0qLnJlc3RhcGkuY29tggtyZXN0YXBpLmNvbYIH
cmVzdGFwaYIJbG9jYWxob3N0MA0GCSqGSIb3DQEBCwUAA4IBAQAWiYxLNxEXLz53
nj4b1s1f3nFhF9KkoSPhp0014nLtvuc8wbYyH+TM9/qi4z2ifrv0VXxnwOTyBhKb
GkeB8/zPcXWDfrjO8J9wAvCAp0jIkZ9DIOSKjOOsoM+ipMZOGnc3OUIya0/nfCcJ
kl/io+D5pgPAqAowLau4W55wwk5vFyFFEEPjc2MDlUS7DN/+SeTadtaX5TsJWfbc
Nx6CnmduztZIvtIGFPDqrNhN56M3xRjQKjxozOCT2zw2ajZnZolcJjrfEVYVlJoP
t9yjvQvPneWyf3CfZpXywLvMEAe9HE2hLbK4cD6Y5xwEhjx5cnDkgL6rQTt57AJl
OnZP5l7i
-----END CERTIFICATE-----
-----BEGIN CERTIFICATE-----
MIIDtzCCAp+gAwIBAgIJALNm6gVK96svMA0GCSqGSIb3DQEBCwUAMHIxCzAJBgNV
BAYTAkVDMQ8wDQYDVQQIDAZHdWF5YXMxEjAQBgNVBAcMCUd1YXlhcXVpbDERMA8G
A1UECgwIVGVzdC5PcmcxEDAOBgNVBAsMB1Rlc3RpbmcxGTAXBgNVBAMMEFRlc3Qu
T3JnIENBIFJvb3QwHhcNMjIwODEzMTcwNDI1WhcNMjIwOTEyMTcwNDI1WjByMQsw
CQYDVQQGEwJFQzEPMA0GA1UECAwGR3VheWFzMRIwEAYDVQQHDAlHdWF5YXF1aWwx
ETAPBgNVBAoMCFRlc3QuT3JnMRAwDgYDVQQLDAdUZXN0aW5nMRkwFwYDVQQDDBBU
ZXN0Lk9yZyBDQSBSb290MIIBIjANBgkqhkiG9w0BAQEFAAOCAQ8AMIIBCgKCAQEA
tL2AXj4C4Nc6eO97G4Q0faT49HLsZDzb7cq7n/ittl4Lm8hCeaUFxHcUvCyO9qB1
86gD5iYyfRnlbQGDHZSTy0jLGikjvpUvYHS7NicnaatOp0h2TaoajzXD/BL8qJRD
LC9jKVgGE7qofAMNyeQf+aZvdaAmg+OFIxZVrwZOQ3UG3vLXPx0oTU4zpA/CyUxA
8eq955xyRPkB7hfoMDig8xnHluPhxSIbZxvvCOvtP9bIIFeQab+tSIp5BQWQv50+
YZNwx/cOsGhRnAj9QacDs403klB6aXJaSHmlhEYkBkCXtVMJayZWDgThvaD8LVUI
aInMsEqPo8xEeofXs7AdswIDAQABo1AwTjAdBgNVHQ4EFgQU9P+FsReHMlekEFY6
NNuBj/ktfIwwHwYDVR0jBBgwFoAU9P+FsReHMlekEFY6NNuBj/ktfIwwDAYDVR0T
BAUwAwEB/zANBgkqhkiG9w0BAQsFAAOCAQEAI/EvDFe9quEfqZ84MHUntd5aW6o8
/9ylIiuiyzMk0QxtC8j0/zkLCHNoeBEnwB9twg64qarT9iJxXw2VOQE2ElQIXoUb
A6rexBRdXrens/6qGwARgx1R8BTLh+B2mJpOJ/ADYXmY7xv83HHFmaI7B8dK2W8S
x3BvwB78LcSU4z62K6eAfuBg6m2O1f4SWyfObMY1ua0fsaY5XNIu6m+SQ2WQjMh3
1jCbnZQZ9ipY0ukCVkbddujDU/HhoVW1SQ1pLaNuUo0h1kpeX+gTBFOYu45rzSaH
uanXaum6VQUfRtWQeJQYj5ut/0k7nDmLNl2pxbxuGff/wuRM4K8nEaTNEw==
-----END CERTIFICATE-----
