Certificate:
    Data:
        Version: 3 (0x2)
        Serial Number: 1 (0x1)
        Signature Algorithm: sha256WithRSAEncryption
        Issuer: C=EC, ST=Guayas, L=Guayaquil, O=Test.Org, OU=Testing, CN=Test.Org/emailAddress=test@test.org
        Validity
            Not Before: Aug  8 03:21:56 2023 GMT
            Not After : Aug  5 03:21:56 2033 GMT
        Subject: C=EC, ST=Guayas, O=Test.Org, OU=Testing, CN=*.restapi.com/emailAddress=admin@restapi.com
        Subject Public Key Info:
            Public Key Algorithm: rsaEncryption
                Public-Key: (2048 bit)
                Modulus:
                    00:a5:0f:00:fc:db:34:86:0b:a7:ed:0e:22:09:73:
                    3b:57:7e:5b:11:43:43:02:1f:ec:9f:7f:ca:27:a1:
                    34:7c:8e:73:b5:7e:c7:d4:35:db:c9:75:40:79:ab:
                    97:4d:f3:8c:4f:f2:1f:c5:17:38:a2:e0:07:79:23:
                    1c:6f:12:04:01:07:8b:87:5b:1f:c6:6b:4d:a1:0c:
                    a8:af:4c:27:f8:d3:53:64:49:64:36:a8:32:0e:b2:
                    d4:65:76:d2:44:fa:30:95:0d:66:8b:60:dd:64:47:
                    8a:a3:fb:97:7a:72:9d:58:c5:29:b1:6f:9d:a5:59:
                    5d:0a:43:4d:86:99:93:fd:f0:97:ba:de:11:ff:e8:
                    91:37:21:01:ff:dc:b4:d4:85:6f:e5:fe:00:13:41:
                    93:28:c5:28:ac:a4:cb:13:96:8f:13:6c:7c:df:2d:
                    83:cd:cb:c2:f7:bc:1c:4a:38:bf:17:c6:88:15:42:
                    c1:c5:bd:59:d0:d1:03:34:00:3d:4a:0e:b0:24:95:
                    e8:41:f0:76:a5:a1:f9:ef:de:a1:d8:f6:c9:fe:b9:
                    79:8f:39:dc:8a:ef:4f:b6:5d:c8:9b:10:0d:85:ff:
                    e2:7b:c7:78:ac:48:b2:23:72:67:e2:5f:4e:dd:1d:
                    26:b2:43:b4:15:31:48:f5:e6:13:18:d0:2f:d6:9f:
                    55:51
                Exponent: 65537 (0x10001)
        X509v3 extensions:
            X509v3 Basic Constraints: 
                CA:FALSE
            Netscape Comment: 
                OpenSSL Generated Certificate
            X509v3 Subject Key Identifier: 
                FC:D7:7A:FA:B4:79:E2:63:B4:4D:6D:EC:A5:F4:82:FD:1D:4B:5C:0F
            X509v3 Authority Key Identifier: 
                26:22:CE:44:73:FC:DA:93:EE:AB:1A:34:D2:47:E7:19:29:39:B6:94
            X509v3 Subject Alternative Name: 
                DNS:*.restapi.com, DNS:restapi.com, DNS:restapi, DNS:localhost
    Signature Algorithm: sha256WithRSAEncryption
    Signature Value:
        11:ba:50:e5:d4:c5:48:37:ac:0f:af:b7:6c:fe:b7:c5:62:f7:
        b5:e3:ef:90:2c:21:50:cf:84:57:a1:61:d1:3b:7a:24:5e:99:
        4f:65:78:cd:f6:40:3a:e1:72:de:6a:09:cb:0b:9f:4f:9f:1e:
        0c:37:46:99:c3:39:19:52:01:65:af:5a:23:1f:47:33:d1:81:
        31:9a:5d:26:c2:ac:2a:a2:4c:ed:d7:af:42:a1:81:1a:f5:78:
        cb:d0:18:e3:84:a9:5d:55:0e:ad:c8:a8:78:34:36:79:7a:5d:
        12:ea:3d:ac:b0:78:2f:6b:be:66:db:6d:6f:06:34:06:7b:c7:
        2c:a9:5c:c6:09:62:52:aa:d9:9e:d1:ff:b9:25:ad:43:6a:eb:
        5b:fe:b3:00:01:4e:d3:f5:de:90:90:75:ea:f3:ab:11:8f:06:
        4a:05:c5:0f:4a:60:38:86:ea:86:52:f7:2b:12:06:28:62:78:
        0f:19:cc:00:7a:9b:73:84:24:5e:e9:a2:9f:3c:71:4d:62:72:
        e7:5e:0b:2a:56:79:6c:60:ea:26:98:c2:bf:1c:c5:0a:fa:34:
        c8:14:40:53:1a:56:c1:a4:f3:9e:10:b1:00:47:61:86:97:7d:
        5e:e8:6e:23:18:9e:43:1a:46:c5:a3:76:a2:78:a5:0b:6b:18:
        e8:a3:21:fc
-----BEGIN CERTIFICATE-----
MIIEOTCCAyGgAwIBAgIBATANBgkqhkiG9w0BAQsFADCBiDELMAkGA1UEBhMCRUMx
DzANBgNVBAgMBkd1YXlhczESMBAGA1UEBwwJR3VheWFxdWlsMREwDwYDVQQKDAhU
ZXN0Lk9yZzEQMA4GA1UECwwHVGVzdGluZzERMA8GA1UEAwwIVGVzdC5PcmcxHDAa
BgkqhkiG9w0BCQEWDXRlc3RAdGVzdC5vcmcwHhcNMjMwODA4MDMyMTU2WhcNMzMw
ODA1MDMyMTU2WjB9MQswCQYDVQQGEwJFQzEPMA0GA1UECAwGR3VheWFzMREwDwYD
VQQKDAhUZXN0Lk9yZzEQMA4GA1UECwwHVGVzdGluZzEWMBQGA1UEAwwNKi5yZXN0
YXBpLmNvbTEgMB4GCSqGSIb3DQEJARYRYWRtaW5AcmVzdGFwaS5jb20wggEiMA0G
CSqGSIb3DQEBAQUAA4IBDwAwggEKAoIBAQClDwD82zSGC6ftDiIJcztXflsRQ0MC
H+yff8onoTR8jnO1fsfUNdvJdUB5q5dN84xP8h/FFzii4Ad5IxxvEgQBB4uHWx/G
a02hDKivTCf401NkSWQ2qDIOstRldtJE+jCVDWaLYN1kR4qj+5d6cp1YxSmxb52l
WV0KQ02GmZP98Je63hH/6JE3IQH/3LTUhW/l/gATQZMoxSispMsTlo8TbHzfLYPN
y8L3vBxKOL8XxogVQsHFvVnQ0QM0AD1KDrAklehB8Halofnv3qHY9sn+uXmPOdyK
70+2XcibEA2F/+J7x3isSLIjcmfiX07dHSayQ7QVMUj15hMY0C/Wn1VRAgMBAAGj
gbcwgbQwCQYDVR0TBAIwADAsBglghkgBhvhCAQ0EHxYdT3BlblNTTCBHZW5lcmF0
ZWQgQ2VydGlmaWNhdGUwHQYDVR0OBBYEFPzXevq0eeJjtE1t7KX0gv0dS1wPMB8G
A1UdIwQYMBaAFCYizkRz/NqT7qsaNNJH5xkpObaUMDkGA1UdEQQyMDCCDSoucmVz
dGFwaS5jb22CC3Jlc3RhcGkuY29tggdyZXN0YXBpgglsb2NhbGhvc3QwDQYJKoZI
hvcNAQELBQADggEBABG6UOXUxUg3rA+vt2z+t8Vi97Xj75AsIVDPhFehYdE7eiRe
mU9leM32QDrhct5qCcsLn0+fHgw3RpnDORlSAWWvWiMfRzPRgTGaXSbCrCqiTO3X
r0KhgRr1eMvQGOOEqV1VDq3IqHg0Nnl6XRLqPayweC9rvmbbbW8GNAZ7xyypXMYJ
YlKq2Z7R/7klrUNq61v+swABTtP13pCQderzqxGPBkoFxQ9KYDiG6oZS9ysSBihi
eA8ZzAB6m3OEJF7pop88cU1icudeCypWeWxg6iaYwr8cxQr6NMgUQFMaVsGk854Q
sQBHYYaXfV7obiMYnkMaRsWjdqJ4pQtrGOijIfw=
-----END CERTIFICATE-----
-----BEGIN CERTIFICATE-----
MIID8DCCAtigAwIBAgIUa5xDIIDXO1WqjZAht4OwgzuHbs0wDQYJKoZIhvcNAQEL
BQAwgYgxCzAJBgNVBAYTAkVDMQ8wDQYDVQQIDAZHdWF5YXMxEjAQBgNVBAcMCUd1
YXlhcXVpbDERMA8GA1UECgwIVGVzdC5PcmcxEDAOBgNVBAsMB1Rlc3RpbmcxETAP
BgNVBAMMCFRlc3QuT3JnMRwwGgYJKoZIhvcNAQkBFg10ZXN0QHRlc3Qub3JnMB4X
DTIzMDgwODAzMTY1NFoXDTMzMDgwNTAzMTY1NFowgYgxCzAJBgNVBAYTAkVDMQ8w
DQYDVQQIDAZHdWF5YXMxEjAQBgNVBAcMCUd1YXlhcXVpbDERMA8GA1UECgwIVGVz
dC5PcmcxEDAOBgNVBAsMB1Rlc3RpbmcxETAPBgNVBAMMCFRlc3QuT3JnMRwwGgYJ
KoZIhvcNAQkBFg10ZXN0QHRlc3Qub3JnMIIBIjANBgkqhkiG9w0BAQEFAAOCAQ8A
MIIBCgKCAQEA2MGHamDZKntVZLtlUcqP7bzV/Rpk28bLdCt5ttHfmDU/3nUQqVs/
Mzk+6pIH73W9im1Fy87SJ3Z5V4hdL9xLT+fcRRHNSMKrRM8UHAZ5xQKYBgGKVms7
+DFUBtsrztohnKHdiV3hGAgjuidXxpXRjT1HUZ8eu6LaT2H93Hmj1tFDiwCgA0LZ
G2B+9V3rWkUqjL5FGqPqRdb6kPr/KR2dEYMfpQT5PIMNe5gIhMTHVBt4Cd1lV+Ds
MBI6O12PXDuL83xAYwXpsWzSNtwwHLXANGAuQw0JwK47EgZf2hhZs8WDfbf5TBhU
RmudOvIy6MyV8t4VJTOTwfpt6n8ld25QmQIDAQABo1AwTjAdBgNVHQ4EFgQUJiLO
RHP82pPuqxo00kfnGSk5tpQwHwYDVR0jBBgwFoAUJiLORHP82pPuqxo00kfnGSk5
tpQwDAYDVR0TBAUwAwEB/zANBgkqhkiG9w0BAQsFAAOCAQEAjZaSTuKLdYFgwPVf
hbnVp6NPApKM3ydLBW7PQohIOZ/u8b/cVhYqXZjDpJ+TLvTG96k8ihQctXtSr81G
D75xQ+mo+eCcizx8QUSHEYc9MWhNvYG0nF2cSyz2gZOlzzxWyBHG3CpLtkermfqb
XtAOBprLItGIoX0GaipsJvy00qU4HPiN8N5kustpyJvtU0AY9qX9bqv2J6LSOjOi
BWxV2kOVUvl6QDn/rVP7FrP2Q4R3OMGzbrg2eNgykb+QUzQ6Wz9aEDJRrqnOJrNG
LAtiGQu3aFhHqQb4WBlB6yYSBzVYjNVzHhnN6JvN3ONJ2HR32fsGQleVLtsbg33Z
hwdtsA==
-----END CERTIFICATE-----