Certificate:
    Data:
        Version: 3 (0x2)
        Serial Number: 2 (0x2)
    Signature Algorithm: sha256WithRSAEncryption
        Issuer: C=EC, ST=Guayas, L=Guayaquil, O=Test.Org, OU=Testing, CN=Test.Org CA Root
        Validity
            Not Before: Aug 13 18:27:17 2022 GMT
            Not After : Aug 10 18:27:17 2032 GMT
        Subject: C=EC, ST=Guayas, O=Test.Org, OU=Testing, CN=restclient/emailAddress=admin@restclient.com
        Subject Public Key Info:
            Public Key Algorithm: rsaEncryption
                Public-Key: (2048 bit)
                Modulus:
                    00:ee:6e:67:48:03:f2:05:bf:3a:7d:2d:86:41:cb:
                    f9:80:e5:c5:a1:a8:c3:84:c0:c8:8b:ed:99:80:38:
                    04:b3:f9:b6:cb:22:64:96:95:fe:cf:1c:16:e2:bb:
                    7c:27:45:26:61:d4:50:10:64:22:77:fa:03:52:45:
                    54:ae:df:fc:e8:53:ce:de:44:5b:36:29:2d:68:b2:
                    76:65:ca:d4:b5:75:35:37:db:5e:88:2f:bc:76:c1:
                    39:66:da:16:36:d4:8b:22:aa:ea:8c:36:8a:1c:e4:
                    49:7f:15:63:7b:f4:fe:e7:05:6e:05:01:41:b8:68:
                    74:90:83:54:14:40:d7:b5:3e:0c:5c:a3:a5:e9:03:
                    1f:3a:4c:6e:b0:11:b3:3d:7d:41:21:94:d1:a5:0d:
                    1c:0a:1e:f3:9c:e0:4c:c6:b4:72:db:50:24:57:65:
                    82:19:bd:d7:61:8e:ca:17:34:28:7b:b4:77:34:96:
                    eb:00:da:82:f6:cd:b8:89:ef:78:ea:c5:24:5a:ca:
                    9d:96:4a:71:79:89:14:a2:a6:50:c4:da:ec:0e:90:
                    c7:bd:a7:61:c1:fd:86:fd:69:99:89:50:f8:46:dd:
                    2d:78:4e:b0:5d:f8:bf:33:40:65:3a:fe:8f:09:fa:
                    b6:c4:c6:11:9f:db:d6:67:4f:3b:a9:bc:8a:64:9b:
                    72:39
                Exponent: 65537 (0x10001)
        X509v3 extensions:
            X509v3 Basic Constraints: 
                CA:FALSE
            Netscape Comment: 
                OpenSSL Generated Certificate
            X509v3 Subject Key Identifier: 
                26:59:84:A7:1B:6E:73:82:15:5B:30:7B:97:14:9A:3C:2B:48:A9:B9
            X509v3 Authority Key Identifier: 
                keyid:F4:FF:85:B1:17:87:32:57:A4:10:56:3A:34:DB:81:8F:F9:2D:7C:8C

    Signature Algorithm: sha256WithRSAEncryption
         8f:72:09:dc:9c:b6:82:79:86:31:d5:e3:10:2f:b6:e7:1a:3d:
         e8:69:32:a2:f4:13:d2:7d:2e:5e:6b:b2:8d:21:00:14:a0:73:
         8b:b5:7f:72:18:d9:eb:a5:42:63:e9:a0:c4:5a:2a:5a:0c:a3:
         76:40:50:23:7b:d5:88:54:6e:25:62:86:6f:c7:db:c8:9a:68:
         5d:da:41:43:d5:0a:e7:4f:67:1a:b0:0e:a8:ee:5a:58:fc:ee:
         62:02:48:51:d7:86:db:66:e0:ea:ba:da:3e:49:d7:6b:95:c4:
         60:74:3f:8e:9d:15:13:ce:cb:f5:24:f4:bb:e1:e9:09:a4:2a:
         a2:8f:8e:59:73:4c:17:75:41:bd:0e:78:b7:35:6c:85:e3:e6:
         16:ef:a7:12:36:a4:b0:6a:7e:0a:c3:40:33:7e:05:f0:9a:21:
         0b:89:00:37:7f:1f:c8:d8:1c:69:56:00:cc:40:46:c3:1f:a2:
         c8:0a:71:2a:8b:99:45:02:ca:bb:f4:6b:83:3d:13:7a:9e:b6:
         7c:94:f2:54:af:05:aa:c0:92:97:14:0a:b1:b0:1d:40:3c:f7:
         2b:79:b2:e7:1f:3c:31:ae:d7:c8:66:41:f2:95:e3:3a:c3:f2:
         f0:16:f1:f4:dc:af:18:6b:92:ed:5b:6b:4b:a7:6f:e4:38:db:
         3c:a2:21:2b
-----BEGIN CERTIFICATE-----
MIID5TCCAs2gAwIBAgIBAjANBgkqhkiG9w0BAQsFADByMQswCQYDVQQGEwJFQzEP
MA0GA1UECAwGR3VheWFzMRIwEAYDVQQHDAlHdWF5YXF1aWwxETAPBgNVBAoMCFRl
c3QuT3JnMRAwDgYDVQQLDAdUZXN0aW5nMRkwFwYDVQQDDBBUZXN0Lk9yZyBDQSBS
b290MB4XDTIyMDgxMzE4MjcxN1oXDTMyMDgxMDE4MjcxN1owfTELMAkGA1UEBhMC
RUMxDzANBgNVBAgMBkd1YXlhczERMA8GA1UECgwIVGVzdC5PcmcxEDAOBgNVBAsM
B1Rlc3RpbmcxEzARBgNVBAMMCnJlc3RjbGllbnQxIzAhBgkqhkiG9w0BCQEWFGFk
bWluQHJlc3RjbGllbnQuY29tMIIBIjANBgkqhkiG9w0BAQEFAAOCAQ8AMIIBCgKC
AQEA7m5nSAPyBb86fS2GQcv5gOXFoajDhMDIi+2ZgDgEs/m2yyJklpX+zxwW4rt8
J0UmYdRQEGQid/oDUkVUrt/86FPO3kRbNiktaLJ2ZcrUtXU1N9teiC+8dsE5ZtoW
NtSLIqrqjDaKHORJfxVje/T+5wVuBQFBuGh0kINUFEDXtT4MXKOl6QMfOkxusBGz
PX1BIZTRpQ0cCh7znOBMxrRy21AkV2WCGb3XYY7KFzQoe7R3NJbrANqC9s24ie94
6sUkWsqdlkpxeYkUoqZQxNrsDpDHvadhwf2G/WmZiVD4Rt0teE6wXfi/M0BlOv6P
Cfq2xMYRn9vWZ087qbyKZJtyOQIDAQABo3sweTAJBgNVHRMEAjAAMCwGCWCGSAGG
+EIBDQQfFh1PcGVuU1NMIEdlbmVyYXRlZCBDZXJ0aWZpY2F0ZTAdBgNVHQ4EFgQU
JlmEpxtuc4IVWzB7lxSaPCtIqbkwHwYDVR0jBBgwFoAU9P+FsReHMlekEFY6NNuB
j/ktfIwwDQYJKoZIhvcNAQELBQADggEBAI9yCdyctoJ5hjHV4xAvtucaPehpMqL0
E9J9Ll5rso0hABSgc4u1f3IY2eulQmPpoMRaKloMo3ZAUCN71YhUbiVihm/H28ia
aF3aQUPVCudPZxqwDqjuWlj87mICSFHXhttm4Oq62j5J12uVxGB0P46dFRPOy/Uk
9Lvh6QmkKqKPjllzTBd1Qb0OeLc1bIXj5hbvpxI2pLBqfgrDQDN+BfCaIQuJADd/
H8jYHGlWAMxARsMfosgKcSqLmUUCyrv0a4M9E3qetnyU8lSvBarAkpcUCrGwHUA8
9yt5sucfPDGu18hmQfKV4zrD8vAW8fTcrxhrku1ba0unb+Q42zyiISs=
-----END CERTIFICATE-----
-----BEGIN CERTIFICATE-----
MIIDtzCCAp+gAwIBAgIJALNm6gVK96svMA0GCSqGSIb3DQEBCwUAMHIxCzAJBgNV
BAYTAkVDMQ8wDQYDVQQIDAZHdWF5YXMxEjAQBgNVBAcMCUd1YXlhcXVpbDERMA8G
A1UECgwIVGVzdC5PcmcxEDAOBgNVBAsMB1Rlc3RpbmcxGTAXBgNVBAMMEFRlc3Qu
T3JnIENBIFJvb3QwHhcNMjIwODEzMTcwNDI1WhcNMjIwOTEyMTcwNDI1WjByMQsw
CQYDVQQGEwJFQzEPMA0GA1UECAwGR3VheWFzMRIwEAYDVQQHDAlHdWF5YXF1aWwx
ETAPBgNVBAoMCFRlc3QuT3JnMRAwDgYDVQQLDAdUZXN0aW5nMRkwFwYDVQQDDBBU
ZXN0Lk9yZyBDQSBSb290MIIBIjANBgkqhkiG9w0BAQEFAAOCAQ8AMIIBCgKCAQEA
tL2AXj4C4Nc6eO97G4Q0faT49HLsZDzb7cq7n/ittl4Lm8hCeaUFxHcUvCyO9qB1
86gD5iYyfRnlbQGDHZSTy0jLGikjvpUvYHS7NicnaatOp0h2TaoajzXD/BL8qJRD
LC9jKVgGE7qofAMNyeQf+aZvdaAmg+OFIxZVrwZOQ3UG3vLXPx0oTU4zpA/CyUxA
8eq955xyRPkB7hfoMDig8xnHluPhxSIbZxvvCOvtP9bIIFeQab+tSIp5BQWQv50+
YZNwx/cOsGhRnAj9QacDs403klB6aXJaSHmlhEYkBkCXtVMJayZWDgThvaD8LVUI
aInMsEqPo8xEeofXs7AdswIDAQABo1AwTjAdBgNVHQ4EFgQU9P+FsReHMlekEFY6
NNuBj/ktfIwwHwYDVR0jBBgwFoAU9P+FsReHMlekEFY6NNuBj/ktfIwwDAYDVR0T
BAUwAwEB/zANBgkqhkiG9w0BAQsFAAOCAQEAI/EvDFe9quEfqZ84MHUntd5aW6o8
/9ylIiuiyzMk0QxtC8j0/zkLCHNoeBEnwB9twg64qarT9iJxXw2VOQE2ElQIXoUb
A6rexBRdXrens/6qGwARgx1R8BTLh+B2mJpOJ/ADYXmY7xv83HHFmaI7B8dK2W8S
x3BvwB78LcSU4z62K6eAfuBg6m2O1f4SWyfObMY1ua0fsaY5XNIu6m+SQ2WQjMh3
1jCbnZQZ9ipY0ukCVkbddujDU/HhoVW1SQ1pLaNuUo0h1kpeX+gTBFOYu45rzSaH
uanXaum6VQUfRtWQeJQYj5ut/0k7nDmLNl2pxbxuGff/wuRM4K8nEaTNEw==
-----END CERTIFICATE-----