Certificate:
    Data:
        Version: 3 (0x2)
        Serial Number: 1 (0x1)
    Signature Algorithm: sha256WithRSAEncryption
        Issuer: C=EC, ST=Guayas, L=Guayaquil, O=Test.Org, OU=Testing, CN=Test.Org CA Root
        Validity
            Not Before: Aug 13 18:25:55 2022 GMT
            Not After : Aug 10 18:25:55 2032 GMT
        Subject: C=EC, ST=Guayas, O=Test.Org, OU=Testing, CN=*.restapi.com/emailAddress=admin@restapi.com
        Subject Public Key Info:
            Public Key Algorithm: rsaEncryption
                Public-Key: (2048 bit)
                Modulus:
                    00:c3:95:0e:7c:2d:0c:b0:41:f4:b6:65:6c:fa:b8:
                    38:9e:2c:9c:af:34:97:ef:38:76:84:7c:ae:d4:1e:
                    72:db:7b:b7:63:a1:04:a4:00:61:69:96:c8:66:37:
                    cb:f7:4b:1b:1e:0c:95:9d:82:82:f9:bd:82:79:9a:
                    49:60:18:1f:45:63:b7:16:8d:4d:d8:07:9f:d2:ad:
                    50:ba:b0:1c:af:17:df:17:9b:82:fa:ec:d8:ef:22:
                    98:fd:1c:30:99:35:ea:e9:1a:bf:0f:6f:17:0d:db:
                    a4:83:14:19:61:e9:90:87:b0:e7:95:9c:83:33:47:
                    63:bb:fa:d7:b0:20:66:f3:99:9e:52:fc:25:67:d3:
                    84:11:0b:96:24:25:d3:7f:6e:55:8e:3e:ba:cc:4f:
                    c9:8d:7a:0a:bb:b3:a9:58:03:ba:4d:b0:ff:3c:8b:
                    63:87:61:a9:60:d9:e9:c6:c5:b1:a7:47:45:f7:4e:
                    a9:29:12:f0:4f:a0:10:92:97:9b:7b:9a:96:8b:f1:
                    66:06:b4:11:7f:60:af:ea:e0:9c:ff:e5:5d:78:5e:
                    09:41:6d:c3:06:40:1f:0b:8c:a1:0b:03:22:75:d8:
                    b4:7e:eb:30:a4:a0:0b:c0:64:d0:6b:c0:2f:22:0a:
                    a0:16:2b:5c:28:d5:74:29:f8:7f:fa:b0:64:df:e0:
                    2d:5b
                Exponent: 65537 (0x10001)
        X509v3 extensions:
            X509v3 Basic Constraints: 
                CA:FALSE
            Netscape Comment: 
                OpenSSL Generated Certificate
            X509v3 Subject Key Identifier: 
                4C:9F:D0:35:73:E9:51:A9:F3:DD:81:2D:E3:2B:4A:F0:82:DB:86:85
            X509v3 Authority Key Identifier: 
                keyid:F4:FF:85:B1:17:87:32:57:A4:10:56:3A:34:DB:81:8F:F9:2D:7C:8C

            X509v3 Subject Alternative Name: 
                DNS:*.restapi.com, DNS:restapi.com, DNS:restapi
    Signature Algorithm: sha256WithRSAEncryption
         5c:0d:6e:8e:4e:46:f6:e6:bc:f8:bc:02:21:91:fa:64:e4:fb:
         87:84:5a:ca:51:68:0f:c2:2b:3b:2e:83:e4:14:35:36:73:74:
         aa:2f:83:fa:75:a0:8e:5f:88:b8:ae:9e:46:35:8f:36:4d:0a:
         b2:85:27:b8:62:c4:25:c7:e5:eb:7a:c9:5c:a9:d6:0c:cb:49:
         94:20:58:b0:3c:11:b2:ea:0f:7c:3f:91:6a:51:66:79:4f:8d:
         fd:cc:25:52:48:d6:74:dd:93:f1:42:97:13:96:11:8c:fd:ab:
         96:75:e1:5a:1a:fa:aa:9d:b2:64:c2:b3:c7:d5:1e:4d:9b:84:
         78:89:b7:bd:1d:62:20:95:30:9c:33:d2:01:d8:02:fc:dd:a7:
         fc:be:a7:ae:fe:f2:2c:4b:1d:23:42:a1:0b:09:ea:b5:c9:d0:
         50:c6:b7:c9:57:75:47:e9:4a:ab:27:ca:a0:86:f6:3a:46:23:
         b6:7e:6a:b6:5e:a7:b7:ac:16:81:58:bc:ae:7e:cf:40:89:78:
         e6:da:08:a8:9b:93:58:26:e0:fd:c0:26:19:6a:4a:fe:20:81:
         c5:40:9f:37:45:07:ac:7e:34:ff:e5:cd:08:14:5f:69:dc:36:
         9c:74:0a:a4:81:69:6e:3e:68:69:16:ca:82:2c:c6:56:37:fd:
         92:66:ab:e6
-----BEGIN CERTIFICATE-----
MIIEFzCCAv+gAwIBAgIBATANBgkqhkiG9w0BAQsFADByMQswCQYDVQQGEwJFQzEP
MA0GA1UECAwGR3VheWFzMRIwEAYDVQQHDAlHdWF5YXF1aWwxETAPBgNVBAoMCFRl
c3QuT3JnMRAwDgYDVQQLDAdUZXN0aW5nMRkwFwYDVQQDDBBUZXN0Lk9yZyBDQSBS
b290MB4XDTIyMDgxMzE4MjU1NVoXDTMyMDgxMDE4MjU1NVowfTELMAkGA1UEBhMC
RUMxDzANBgNVBAgMBkd1YXlhczERMA8GA1UECgwIVGVzdC5PcmcxEDAOBgNVBAsM
B1Rlc3RpbmcxFjAUBgNVBAMMDSoucmVzdGFwaS5jb20xIDAeBgkqhkiG9w0BCQEW
EWFkbWluQHJlc3RhcGkuY29tMIIBIjANBgkqhkiG9w0BAQEFAAOCAQ8AMIIBCgKC
AQEAw5UOfC0MsEH0tmVs+rg4niycrzSX7zh2hHyu1B5y23u3Y6EEpABhaZbIZjfL
90sbHgyVnYKC+b2CeZpJYBgfRWO3Fo1N2Aef0q1QurAcrxffF5uC+uzY7yKY/Rww
mTXq6Rq/D28XDdukgxQZYemQh7DnlZyDM0dju/rXsCBm85meUvwlZ9OEEQuWJCXT
f25Vjj66zE/JjXoKu7OpWAO6TbD/PItjh2GpYNnpxsWxp0dF906pKRLwT6AQkpeb
e5qWi/FmBrQRf2Cv6uCc/+VdeF4JQW3DBkAfC4yhCwMiddi0fuswpKALwGTQa8Av
IgqgFitcKNV0Kfh/+rBk3+AtWwIDAQABo4GsMIGpMAkGA1UdEwQCMAAwLAYJYIZI
AYb4QgENBB8WHU9wZW5TU0wgR2VuZXJhdGVkIENlcnRpZmljYXRlMB0GA1UdDgQW
BBRMn9A1c+lRqfPdgS3jK0rwgtuGhTAfBgNVHSMEGDAWgBT0/4WxF4cyV6QQVjo0
24GP+S18jDAuBgNVHREEJzAlgg0qLnJlc3RhcGkuY29tggtyZXN0YXBpLmNvbYIH
cmVzdGFwaTANBgkqhkiG9w0BAQsFAAOCAQEAXA1ujk5G9ua8+LwCIZH6ZOT7h4Ra
ylFoD8IrOy6D5BQ1NnN0qi+D+nWgjl+IuK6eRjWPNk0KsoUnuGLEJcfl63rJXKnW
DMtJlCBYsDwRsuoPfD+RalFmeU+N/cwlUkjWdN2T8UKXE5YRjP2rlnXhWhr6qp2y
ZMKzx9UeTZuEeIm3vR1iIJUwnDPSAdgC/N2n/L6nrv7yLEsdI0KhCwnqtcnQUMa3
yVd1R+lKqyfKoIb2OkYjtn5qtl6nt6wWgVi8rn7PQIl45toIqJuTWCbg/cAmGWpK
/iCBxUCfN0UHrH40/+XNCBRfadw2nHQKpIFpbj5oaRbKgizGVjf9kmar5g==
-----END CERTIFICATE-----
-----BEGIN CERTIFICATE-----
MIIDtzCCAp+gAwIBAgIJALNm6gVK96svMA0GCSqGSIb3DQEBCwUAMHIxCzAJBgNV
BAYTAkVDMQ8wDQYDVQQIDAZHdWF5YXMxEjAQBgNVBAcMCUd1YXlhcXVpbDERMA8G
A1UECgwIVGVzdC5PcmcxEDAOBgNVBAsMB1Rlc3RpbmcxGTAXBgNVBAMMEFRlc3Qu
T3JnIENBIFJvb3QwHhcNMjIwODEzMTcwNDI1WhcNMjIwOTEyMTcwNDI1WjByMQsw
CQYDVQQGEwJFQzEPMA0GA1UECAwGR3VheWFzMRIwEAYDVQQHDAlHdWF5YXF1aWwx
ETAPBgNVBAoMCFRlc3QuT3JnMRAwDgYDVQQLDAdUZXN0aW5nMRkwFwYDVQQDDBBU
ZXN0Lk9yZyBDQSBSb290MIIBIjANBgkqhkiG9w0BAQEFAAOCAQ8AMIIBCgKCAQEA
tL2AXj4C4Nc6eO97G4Q0faT49HLsZDzb7cq7n/ittl4Lm8hCeaUFxHcUvCyO9qB1
86gD5iYyfRnlbQGDHZSTy0jLGikjvpUvYHS7NicnaatOp0h2TaoajzXD/BL8qJRD
LC9jKVgGE7qofAMNyeQf+aZvdaAmg+OFIxZVrwZOQ3UG3vLXPx0oTU4zpA/CyUxA
8eq955xyRPkB7hfoMDig8xnHluPhxSIbZxvvCOvtP9bIIFeQab+tSIp5BQWQv50+
YZNwx/cOsGhRnAj9QacDs403klB6aXJaSHmlhEYkBkCXtVMJayZWDgThvaD8LVUI
aInMsEqPo8xEeofXs7AdswIDAQABo1AwTjAdBgNVHQ4EFgQU9P+FsReHMlekEFY6
NNuBj/ktfIwwHwYDVR0jBBgwFoAU9P+FsReHMlekEFY6NNuBj/ktfIwwDAYDVR0T
BAUwAwEB/zANBgkqhkiG9w0BAQsFAAOCAQEAI/EvDFe9quEfqZ84MHUntd5aW6o8
/9ylIiuiyzMk0QxtC8j0/zkLCHNoeBEnwB9twg64qarT9iJxXw2VOQE2ElQIXoUb
A6rexBRdXrens/6qGwARgx1R8BTLh+B2mJpOJ/ADYXmY7xv83HHFmaI7B8dK2W8S
x3BvwB78LcSU4z62K6eAfuBg6m2O1f4SWyfObMY1ua0fsaY5XNIu6m+SQ2WQjMh3
1jCbnZQZ9ipY0ukCVkbddujDU/HhoVW1SQ1pLaNuUo0h1kpeX+gTBFOYu45rzSaH
uanXaum6VQUfRtWQeJQYj5ut/0k7nDmLNl2pxbxuGff/wuRM4K8nEaTNEw==
-----END CERTIFICATE-----
